     1                                  ; ****************************************************************************
     2                                  ; FDBS720.ASM - Retro DOS v2.0 - FAT12 FD BOOT SECTOR (3 1/2", 720K diskette)
     3                                  ; ----------------------------------------------------------------------------
     4                                  ; Last Update: 25/10/2023  (Previous: 27/03/2018) -different boot sector code-
     5                                  ; Last Update: 23/02/2018
     6                                  ; ----------------------------------------------------------------------------
     7                                  ; Beginning: 12/02/2018
     8                                  ; ----------------------------------------------------------------------------
     9                                  ; Assembler: NASM version 2.11 (fdbs720.s)
    10                                  ; ----------------------------------------------------------------------------
    11                                  ; Retro DOS Operating System Project by ERDOGAN TAN (Beginning: 04/02/2018)
    12                                  ; ----------------------------------------------------------------------------
    13                                  ; Derived from TRDOS Operating System v2.0 (386) boot sector source code 
    14                                  ; by Erdogan Tan. 'trfdbs.s' (12/02/2018)
    15                                  ; ****************************************************************************
    16                                  
    17                                  notvalidfmask   equ	0018h
    18                                  
    19                                  root_dir_buff   equ	7E00h
    20                                  
    21                                  rts_segment     equ	1000h  ; Retro DOS 2.0 ; 27/03/2018
    22                                  
    23                                  ;rts_segment	equ	0060h  ; Retro DOS 1.0
    24                                  
    25                                  FAT_Buffer      equ	7E00h
    26                                  
    27                                  ; 24/10/2023
    28                                  root_FAT_buffer equ	7E00h
    29                                  
    30                                  [BITS 16]
    31                                  [ORG 7C00h]
    32 00000000 EB46                                    jmp     short BS_01
    33 00000002 90                                      nop
    34                                  
    35                                  ; BootSector Identification (Data) Block
    36                                  
    37 00000003 524554524F444F53        bsOemName:      db 'RETRODOS'          
    38 0000000B 0002                    bsBytesPerSec:  dw 512
    39 0000000D 02                      bsSecPerClust:  db 2
    40 0000000E 0100                    bsResSectors:   dw 1
    41 00000010 02                      bsFATs:         db 2
    42 00000011 7000                    bsRootDirEnts:  dw 112
    43 00000013 A005                    bsSectors:      dw 1440
    44 00000015 F9                      bsMedia:        db 0F9h
    45 00000016 0300                    bsFATsecs:      dw 3
    46 00000018 0900                    bsSecPerTrack:  dw 9
    47 0000001A 0200                    bsHeads:        dw 2
    48 0000001C 0000                    bsHidden1:      dw 0
    49 0000001E 0000                    bsHidden2:      dw 0
    50 00000020 A0050000                bsHugeSectors:  dd 1440
    51 00000024 00                      bsDriveNumber:  db 0
    52 00000025 00                      bsReserved1:    db 0
    53 00000026 29                      bsBpbSignature: db 29h                 
    54 00000027 00000000                bsVolumeID:     dd 0
    55 0000002B 4E4F204E414D452020-     bsVolumeLabel:  db 'NO NAME    '
    55 00000034 2020               
    56 00000036 4641543132202020        bsFileSysType:  db 'FAT12   '
    57                                  ;bsReserved2:	dw 'v2'	; Retro DOS 2.0 ; 27/03/2018
    58 0000003E 7634                    bsReserved2:	dw 'v4'	; Retro DOS 4.0 ; 24/10/2023
    59                                  ; Retro DOS 1.0 Extensions
    60                                  ;bsReserved2:	dw 'v1'
    61 00000040 0E00                    bsDataStart:    dw 14
    62 00000042 0700                    bsRootDirStart:	dw 7
    63 00000044 0700                    bsRootDirSects:	dw 7
    64                                  ; 24/10/2023
    65 00000046 1000                    bsDirEntsPerSec: dw 16         
    66                                  
    67                                  BS_01:          
    68 00000048 8CC8                                    mov	ax, cs
    69 0000004A 8ED8                    		mov	ds, ax
    70 0000004C 8EC0                    		mov	es, ax
    71                                  		
    72 0000004E FA                      		cli
    73 0000004F 8ED0                    		mov	ss, ax
    74 00000051 BCFEFF                  		mov     sp, 0FFFEh
    75 00000054 FB                      		sti
    76                                  
    77                                  		; 24/10/2023
    78                                  		;mov	bp, sp
    79                                  
    80                                  		; 25/10/2023
    81                                  		; (DL = boot drive number -from INT 19h-
    82                                  		; DL value is not changed in this boot sector code.
    83                                  		; No need to save boot drive number.)
    84                                  		;
    85                                  		; overwrite fd drive number !
    86                                                  ;mov	[bsDriveNumber], dl 	; drive number from INT 19h
    87                                  ;BS_02:
    88 00000055 A1[4200]                		mov	ax, [bsRootDirStart]	; Root Dir Location
    89                                  		; 24/10/2023
    90 00000058 8B2E[4400]              		mov	bp, [bsRootDirSects]
    91                                  BS_02:	
    92 0000005C E88100                  		call	fd_read_1
    93 0000005F 7227                    		jc      short BS_05		; Disk read error message
    94                                  
    95                                  		; 24/10/2023
    96                                                  ;;mov	ax, 7			; Root Dir Location
    97                                  		;mov	ax, [bsRootDirStart]
    98                                  		;;mov	cx, 7			; Root Directory Sectors
    99                                                  ;mov	cx, [bsRootDirSects]
   100                                  		;mov	bx, root_dir_buff	; Destination offset = 700h
   101                                                  ;mov	si, bx
   102                                                  ;call	fd_read
   103                                  		;jc	short BS_04		; Disk read error message
   104                                  
   105                                  		; 24/10/2023
   106                                  		; ax = next root directory sector
   107                                  
   108                                  		; 24/10/2023
   109                                                  ;;mov	bx, 112
   110                                  		;mov	bx, [bsRootDirEnts]	; Number of root dir entries
   111 00000061 8B1E[4600]              		mov	bx, [bsDirEntsPerSec]
   112 00000065 BE007E                                  mov	si, root_dir_buff
   113                                  BS_03:          
   114                                  		; 24/10/2023
   115 00000068 383C                    		cmp     byte [si], bh ; 0
   116                                  		;cmp	byte [si], 0		; Is it null entry?
   117 0000006A 7417                                    je      short BS_04_ERR		; Jump if zero ( = )
   118 0000006C B90B00                                  mov     cx, 11			; Size of file/directory name
   119 0000006F 56                                      push    si
   120 00000070 BF[F201]                                mov     di, rtsfilename   
   121 00000073 F3A6                                    repe    cmpsb                   ; Repeat if ZF = 1, CX > 0
   122                                  						; Cmp byte DS:SI with ES:DI
   123 00000075 5E                                      pop	si
   124 00000076 741C                                    je      short BS_07		; If the file name found
   125 00000078 4B                                      dec     bx                    
   126 00000079 7405                                    jz      short BS_04		; Jump if no next entry
   127 0000007B 83C620                                  add     si, 32                  ; To next directory entry
   128 0000007E EBE8                                    jmp     short BS_03             ; Jump for next sector
   129                                  BS_04:
   130                                  		; 24/10/2023
   131                                  		;dec	word [bsRootDirSects]
   132                                  		;jz	short BS_04_ERR
   133                                  		;inc	word [bsRootDirStart]
   134                                  		;jmp	short BS_02
   135 00000080 4D                      		dec	bp
   136 00000081 75D9                    		jnz	short BS_02
   137                                  BS_04_ERR:
   138 00000083 BE[9D01]                                mov     si, Replace_Msg
   139 00000086 EB03                                    jmp     short BS_06
   140                                  BS_05:      
   141 00000088 BE[9501]                                mov     si, Error_Msg
   142                                  BS_06:          
   143 0000008B E83700                                  call    print_msg
   144                                  
   145 0000008E 31C0                                    xor	ax, ax
   146 00000090 CD16                    		int	16h			; BIOS Service func ( ah ) = 0
   147                                  						; Read next kbd char
   148                                  						; AH-scan code AL-char code
   149 00000092 CD19                    		int	19h			; Reboot
   150                                  
   151                                  BS_07:
   152                                  		;mov	al, [si+0Bh]		; Move attributes byte to BL
   153                                                  ;and	al, notvalidfmask       ; Is it a file, really?
   154                                                  ; 24/10/2023
   155 00000094 F6440B18                		test	byte [si+0Bh], notvalidfmask
   156 00000098 75E9                    		jnz	short BS_04_ERR		; Jump if not
   157 0000009A 8B441A                                  mov	ax, [si+1Ah]		; First cluster of the file
   158 0000009D 83F802                  		cmp	ax, 2                   ; Start cluster
   159 000000A0 72E6                                    jb	short BS_05
   160                                  
   161                                                  ;mov	[bsReserved2], ax	; Save the first cluster
   162                                  		; 24/10/2023
   163 000000A2 50                      		push	ax
   164                                  
   165                                  		; Load  RTS (Kernel) file
   166 000000A3 BE[CF01]                                mov     si, Loading_Msg
   167 000000A6 E81C00                                  call    print_msg
   168                                  	     	
   169                                  		; 24/10/2023
   170                                  		;; Load FAT
   171                                                  ;;mov	ax, 1                   ; FAT Location
   172                                                  ;mov	ax, [bsResSectors]
   173                                  		;;mov	cx, 3			; FAT Sectors
   174                                                  ;mov	cx, [bsFATsecs]
   175                                  		;mov	bx, FAT_Buffer    
   176                                                  ;call	fd_read
   177                                                  ;jc	short BS_05
   178                                  
   179                                  		; 24/10/2023
   180                                  		;; Load RTS (Kernel) file
   181                                  		;mov	si, Loading_Msg
   182                                  		;call	print_msg
   183                                  
   184 000000A9 58                      		pop	ax
   185                                                  ;mov	ax, [bsReserved2]	; The First cluster
   186 000000AA BB0010                                  mov     bx, rts_segment
   187 000000AD 8EC3                                    mov     es, bx
   188 000000AF 31DB                                    xor     bx, bx
   189 000000B1 E86500                                  call    load_file
   190 000000B4 72D2                                    jc      short BS_05
   191                                  
   192                                  		; Launch RTS (Kernel)
   193                                     		;mov	ax, es
   194                                  		;cli
   195                                                  ;mov	ss, ax
   196                                                  ;mov	sp, 0FFFEh
   197                                                  ;sti
   198                                                  ;mov	dl, [bsDriveNumber]
   199                                                  ;mov	ax, rts_segment ; 60h
   200                                                  ;mov	ds, ax
   201                                                  ;mov	es, ax
   202                                               
   203 000000B6 BD007C                  		mov 	bp, 7C00h
   204                                  
   205                                  		; Retro DOS 3.0 ; 19/10/2018
   206                                  		;mov	dl, [bsDriveNumber]
   207                                  		; 24/10/2023
   208                                  		; dl = [bsDriveNumber]
   209                                  		
   210                                  		; Retro DOS 2.0 ; 27/03/2018
   211 000000B9 8A36[1500]              		mov	dh, [bsMedia]
   212 000000BD A1[1300]                		mov	ax, [bsSectors] ; 720 sectors, 360 KB
   213                                  
   214 000000C0 EA00000010              		jmp	rts_segment:0
   215                                  
   216                                                  ;db	0EAh
   217                                                  ;dw	0
   218                                                  ;dw	rts_segment
   219                                  
   220                                  print_msg:
   221                                  BS_08:
   222 000000C5 AC                      		lodsb				; Load byte at DS:SI to AL
   223 000000C6 20C0                                    and     al, al            
   224 000000C8 7415                                    jz	short BS_10		; If AL = 00h then stop
   225                                  
   226 000000CA B40E                                    mov     ah, 0Eh
   227 000000CC BB0700                                  mov     bx, 07h             
   228 000000CF CD10                    		int	10h			; BIOS Service func ( ah ) = 0Eh
   229                                  						; Write char as TTY
   230                                  						; AL-char BH-page BL-color
   231 000000D1 EBF2                                    jmp     short BS_08
   232                                  
   233                                  BS_09:	
   234                                  		; 24/10/2023        
   235 000000D3 FECD                                    dec	ch
   236                                  		;dec	byte [RetryCount]
   237 000000D5 7408                    		jz	short BS_10 ; cf = 1
   238                                  
   239                                  		; 24/10/2023
   240                                  		;; Reset disk system
   241                                  		;push	ax
   242                                  		;xor	ah, ah
   243                                                  ;;mov	dl, [bsDriveNumber]
   244                                  		;int	13h
   245                                                  ;pop	ax
   246                                  		;jnc	short BS_12
   247                                  
   248                                  		; 24/10/2023
   249 000000D7 50                      		push	ax
   250 000000D8 31C0                    		xor	ax, ax
   251                                  		; ah = 0 ; INT 13h reset function
   252 000000DA CD13                    		int	13h
   253 000000DC 58                      		pop	ax
   254 000000DD 7308                    		jnc	short BS_11
   255                                  BS_10:
   256 000000DF C3                      		retn
   257                                   
   258                                  fd_read_1:
   259                                  		; 24/10/2023
   260 000000E0 B101                    		mov	cl, 1	; read 1 sector (only)
   261 000000E2 BB007E                  		mov	bx, root_FAT_buffer ; *-* ; 7E00h
   262                                  fd_read_2:
   263                                  ;fd_read:
   264                                                  ; Only for FAT12 Floppy Disks
   265                                                  
   266                                  		; 24/10/2023
   267 000000E5 B504                                    mov	ch, 4
   268                                  		;mov	byte [RetryCount], 4
   269                                  BS_11:
   270 000000E7 51                                      push    cx
   271 000000E8 50                                      push    ax                      ; PHYSICAL ADRESS CALCULATION
   272                                                  ;mov	cl, 9			; Sectors per track
   273 000000E9 8A0E[1800]                              mov	cl, [bsSecPerTrack]
   274 000000ED F6F1                    		div     cl                      
   275 000000EF 88E1                                    mov     cl, ah                  ; Sector (zero based)
   276 000000F1 FEC1                                    inc     cl                      ; To make it 1 based
   277                                                  ;xor	ah, ah
   278                                                  ;mov	dl, 2			; Heads 
   279                                                  ;div	dl
   280                                                                                  ; AL=cyl, AH=head, CL=sector
   281                                                  ;mov	dh, ah
   282 000000F3 28F6                    		sub	dh, dh
   283 000000F5 D0E8                    		shr	al, 1
   284 000000F7 80D600                  		adc	dh, 0
   285 000000FA 88C5                    		mov     ch, al            
   286                                  
   287                                  		;mov	dl, [bsDriveNumber]	; (!DL has not been changed!)
   288                                                  ; 24/10/2023
   289                                  		; dl = [bsDriveNumber]
   290                                  
   291 000000FC B80102                                  mov     ax, 0201h
   292                                  
   293 000000FF CD13                    		int	13h			; BIOS Service func ( ah ) = 2
   294                                  						; Read disk sectors
   295                                  						; AL-sec num CH-track CL-sec
   296                                  						; DH-head DL-drive ES:BX-buffer
   297                                  						; CF-flag AH-stat AL-sec read
   298 00000101 58                      		pop	ax			
   299 00000102 59                                      pop     cx
   300 00000103 72CE                                    jc      short BS_09
   301 00000105 40                                      inc     ax
   302                                  	                
   303                                                  ;add	bx, 512
   304 00000106 80C702                  	        add	bh, 2
   305 00000109 7309                    		jnc	short BS_12
   306 0000010B 53                      		push	bx
   307 0000010C 8CC3                    		mov	bx, es
   308                                  		;add	bx, 1000h
   309 0000010E 80C710                  		add	bh, 10h
   310 00000111 8EC3                    		mov	es, bx
   311 00000113 5B                      		pop	bx
   312                                  BS_12:
   313                                                  ;dec	cx
   314 00000114 FEC9                                    dec	cl
   315 00000116 75CD                    		jnz	short fd_read_2	; 24/10/2023
   316 00000118 C3                      		retn
   317                                  
   318                                  load_file:
   319                                                  ; ES:BX = File Buffer
   320                                                  ; AX = First Cluster Number
   321                                                  ; Only for FAT12 Floppy Disks
   322                                  
   323                                  		; 24/10/2023
   324                                  		; bp = 0FFFEh (sp)
   325                                  		; 24/10/2023
   326 00000119 89E5                    		mov	bp, sp ; 0FFFEh
   327                                  BS_13:
   328                                  		;mov	[File_Cluster], ax
   329                                  		; 24/10/2023
   330 0000011B 89C7                    		mov	di, ax ; file (current) cluster
   331                                  
   332 0000011D 48                                      dec     ax                      ; First cluster is cluster 2
   333 0000011E 48                                      dec     ax
   334                                  		               
   335                                                  ;mov	cx, 2                   ; Sector count
   336                                                  
   337 0000011F 8A0E[0D00]              		mov	cl, [bsSecPerClust]
   338                                  		; ch = 0
   339 00000123 F6C102                  		test	cl, 2
   340 00000126 7402                    		jz	short BS_14
   341 00000128 D1E0                    		shl	ax, 1
   342                                  
   343                                  		;add	ax, 12                  ; Beginning sector of Data
   344                                  BS_14:
   345 0000012A 0306[4000]                              add	ax, [bsDataStart]
   346                                  		;call	fd_read
   347                                                  ; 24/10/2023
   348 0000012E E8B4FF                  		call	fd_read_2
   349 00000131 7242                    		jc      short BS_16
   350                                  get_next_cluster:
   351                                  		; 24/10/2023
   352                                  		;push	bx
   353                                                  ;mov	ax, [File_Cluster]
   354                                                  ;mov	bx, ax
   355                                  		;; Multiply by 3
   356                                  		;;mov	dx, 3
   357                                  		;;mul	dx
   358                                                 	;add	ax, ax
   359                                  		;add	ax, bx
   360                                  
   361                                  		; 24/10/2023
   362 00000133 52                      		push	dx
   363 00000134 31D2                    		xor	dx, dx ; 0	
   364 00000136 89F8                    		mov	ax, di ; file (current) cluster
   365 00000138 D1E8                    		shr	ax, 1  ; Divide by 2
   366 0000013A 01F8                    		add	ax, di ; AX * 1.5 = AX + AX/2
   367                                  		; dx = 0
   368                                  		; ax = byte offset in the FAT
   369 0000013C F736[0B00]              		div	word [bsBytesPerSec]
   370                                  		; ax = FAT sector (index) number
   371                                  		; dx = offset in FAT sector buffer
   372 00000140 89D6                    		mov	si, dx
   373 00000142 5A                      		pop	dx                
   374                                  
   375 00000143 39E8                    		cmp	ax, bp ; previous FAT sector in the FAT buffer
   376 00000145 7405                    		je	short SplitChk ; no need to read it again
   377 00000147 E83100                  		call	NextFATSec1  ; 25/10/2023
   378 0000014A 7229                            	jc	short BS_16
   379                                  SplitChk:
   380 0000014C B9FF7D                  		mov	cx, FAT_Buffer-1
   381 0000014F 46                      		inc	si
   382 00000150 3B36[0B00]              		cmp	si, [bsBytesPerSec] ; 512 ?
   383 00000154 750F                    		jne	short ClusterOk ; jb short ClusterOk
   384                                  		
   385                                  		; 24/10/2023
   386                                  		; ax = next FAT sector (at 'fd_read' return)
   387                                  		
   388                                  		; 24/10/2023
   389 00000156 01CE                    		add	si, cx
   390                                  		;lodsb
   391 00000158 8A34                    		mov	dh, [si]
   392 0000015A 89CE                    		mov	si, cx
   393                                  		;mov	[si], al ; mov [7DFFh], al
   394 0000015C 8834                    		mov	[si], dh
   395                                  
   396                                  		; read next sector and then
   397                                  		; use first byte of the next sector (as AH)
   398                                  		
   399                                  		; 24/10/2023
   400                                  		;;mov	ax, bp	; 2 byte opcode
   401                                  		;xchg	ax, bp  ; 1 byte opcode
   402                                  		;inc	ax ; next FAT sector
   403                                  
   404                                  		; 25/10/2023
   405 0000015E 45                      		inc	bp
   406                                  
   407 0000015F E81F00                  		call	NextFATSec2 ; 25/10/2023
   408 00000162 7303                    		jnc	short EvenOdd  ; si = 7DFFh
   409 00000164 C3                      		retn	
   410                                  ClusterOk:
   411                                  		; si = 1 to 511
   412                                  		; cx = FAT_Buffer-1
   413 00000165 01CE                    		add	si, cx
   414                                  EvenOdd:
   415 00000167 AD                      		lodsw		
   416                                  
   417                                  		; di = current cluster
   418 00000168 D1EF                    		shr	di, 1
   419 0000016A 730A                                    jnc     short BS_17
   420 0000016C B104                    		mov	cl, 4
   421 0000016E D3E8                                   	shr	ax, cl
   422                                  
   423                                  		; 24/10/2023
   424                                  		;shr	ax, 1 ; Divide by 2
   425                                                  ;xchg	bx, ax
   426                                                  ;; BX = Buffer Byte Offset
   427                                                  ;; AX = Current Cluster
   428                                                  ;mov	ax, [FAT_Buffer+bx]
   429                                                  ;jnc	short BS_17
   430                                  		;shr	ax, 4
   431                                  BS_15:
   432                                  		; 24/10/2023
   433                                  		;pop	bx
   434                                                  
   435 00000170 3DF70F                  		cmp     ax, 0FF7h
   436 00000173 72A6                    		jb	short BS_13	; 25/10/2023
   437                                  		; EOCC (kernel file has been loaded successfully)
   438                                  BS_16:
   439 00000175 C3                                      retn
   440                                  BS_17:
   441 00000176 80E40F                                  and     ah, 0Fh
   442 00000179 EBF5                                    jmp     short BS_15
   443                                  
   444                                  		; 24/10/2023
   445                                  NextFATSec1:
   446 0000017B 89C5                    		mov	bp, ax
   447                                  		; 25/10/2023
   448 0000017D 0306[0E00]              		add	ax, [bsResSectors]	; FAT sector LBA
   449                                  NextFATSec2:
   450 00000181 06                      		push	es ; +  ; kernel file buffer segment
   451 00000182 53                      		push	bx ; ++ ; save kernel file buffer address
   452                                  
   453 00000183 1E                      		push	ds
   454 00000184 07                      		pop	es
   455                                  
   456                                  		; 24/10/2023 ; *-*
   457                                  		;mov	bx, FAT_Buffer	
   458                                  
   459                                  		; 25/10/2023
   460                                  		;add	ax, [bsResSectors]	; FAT sector LBA
   461                                  		;mov	cl, 1			; Read 1 FAT Sector
   462 00000185 E858FF                  		call	fd_read_1
   463 00000188 5B                       		pop	bx ; ++ ; restore kernel file buffer address
   464 00000189 07                      		pop	es ; +  ; kernel file buffer segment
   465                                  
   466 0000018A C3                      		retn
   467                                  
   468                                  		; 24/10/2023 ; Filler
   469 0000018B 0000                    		dw	0
   470 0000018D 1900                    		dw	25	; 25/10/2023
   471 0000018F 0A00                    		dw	10
   472 00000191 E707                    		dw	2023
   473 00000193 0000                    		dw	0
   474                                  Error_Msg:
   475 00000195 0D0A                                    db      0Dh, 0Ah
   476                                                  ;db	'DOS Kernel Loading Error!'
   477                                  		; 24/10/2023
   478 00000197 4572726F7221            		db	'Error!'
   479                                  Replace_Msg:    
   480 0000019D 0D0A                    		db      0Dh, 0Ah
   481 0000019F 5265706C6163652074-                     db      'Replace the disk and press any key to reboot.'
   481 000001A8 6865206469736B2061-
   481 000001B1 6E6420707265737320-
   481 000001BA 616E79206B65792074-
   481 000001C3 6F207265626F6F742E 
   482 000001CC 0D0A00                                  db      0Dh, 0Ah,0
   483                                  
   484                                  Loading_Msg:	
   485 000001CF 0D0A                    		db      0Dh, 0Ah
   486 000001D1 4C6F6164696E67204B-                     db      "Loading Kernel MSDOS.SYS ..."
   486 000001DA 65726E656C204D5344-
   486 000001E3 4F532E535953202E2E-
   486 000001EC 2E                 
   487 000001ED 0D0A00                                  db      0Dh, 0Ah, 0
   488                                  
   489                                  ;File_Cluster: 
   490 000001F0 A101                    		dw	417	 ; (filler)
   491                                  
   492                                  rtsfilename:
   493 000001F2 4D53444F5320202053-                     db      'MSDOS   SYS'
   493 000001FB 5953               
   494 000001FD 00                                      db      0
   495                                  
   496                                  		times	510 - ($ - $$) db 0
   497                                  
   498 000001FE 55AA                    bootsignature:  db      55h, 0AAh
